target datalayout = "e-m:e-p270:32:32-p271:32:32-p272:64:64-i64:64-i128:128-f80:128-n8:16:32:64-S128"
target triple = "x86_64-pc-linux-gnu"

%class.Sample_TileMesh = type <{ %class.Sample, i8, i8, [2 x i8], float, ptr, ptr, ptr, ptr, ptr, ptr, %struct.rcConfig, i32, i32, i32, float, i32, [3 x float], [3 x float], float, float, i32, [4 x i8] }>
%class.Sample = type { ptr, ptr, ptr, ptr, ptr, i8, float, float, float, float, float, float, float, float, float, float, float, float, float, i32, i8, i8, i8, ptr, [9 x ptr], ptr, %class.SampleDebugDraw }
%class.SampleDebugDraw = type { %class.DebugDrawGL }
%class.DebugDrawGL = type { %struct.duDebugDraw }
%struct.duDebugDraw = type { ptr }
%struct.rcConfig = type { i32, i32, i32, i32, float, float, [3 x float], [3 x float], float, i32, i32, i32, i32, float, i32, i32, i32, float, float }
%class.InputGeom = type { ptr, ptr, [3 x float], [3 x float], %struct.BuildSettings, i8, [1536 x float], [256 x float], [256 x i8], [256 x i8], [256 x i16], [256 x i32], i32, [256 x %struct.ConvexVolume], i32 }
%struct.BuildSettings = type { float, float, float, float, float, float, float, float, float, float, float, float, float, i32, [3 x float], [3 x float], float }
%struct.ConvexVolume = type { [36 x float], float, float, i32, i32 }
%class.rcContext = type <{ ptr, i8, i8, [6 x i8] }>

; Function Attrs: mustprogress uwtable
define linkonce_odr dso_local noundef i32 @_ZNK9rcContext18getAccumulatedTimeE12rcTimerLabel(ptr noundef nonnull align 8 dereferenceable(10) %0, i32 noundef %1) #3 comdat align 2 {
  %3 = alloca ptr, align 8
  %4 = alloca i32, align 4
  store ptr %0, ptr %3, align 8
  store i32 %1, ptr %4, align 4
  %5 = load ptr, ptr %3, align 8
  %6 = getelementptr inbounds %class.rcContext, ptr %5, i32 0, i32 2
  %7 = load i8, ptr %6, align 1
  %8 = trunc i8 %7 to i1
  br i1 %8, label %9, label %15

9:                                                ; preds = %2
  %10 = load i32, ptr %4, align 4
  %11 = load ptr, ptr %5, align 8
  %12 = getelementptr inbounds ptr, ptr %11, i64 7
  %13 = load ptr, ptr %12, align 8
  %14 = call noundef i32 %13(ptr noundef nonnull align 8 dereferenceable(10) %5, i32 noundef %10)
  br label %16

15:                                               ; preds = %2
  br label %16

16:                                               ; preds = %15, %9
  %17 = phi i32 [ %14, %9 ], [ -1, %15 ]
  ret i32 %17
}

; Function Attrs: mustprogress uwtable
define linkonce_odr dso_local void @_ZN9rcContext9stopTimerE12rcTimerLabel(ptr noundef nonnull align 8 dereferenceable(10) %0, i32 noundef %1) #3 comdat align 2 {
  %3 = alloca ptr, align 8
  %4 = alloca i32, align 4
  store ptr %0, ptr %3, align 8
  store i32 %1, ptr %4, align 4
  %5 = load ptr, ptr %3, align 8
  %6 = getelementptr inbounds %class.rcContext, ptr %5, i32 0, i32 2
  %7 = load i8, ptr %6, align 1
  %8 = trunc i8 %7 to i1
  br i1 %8, label %9, label %14

9:                                                ; preds = %2
  %10 = load i32, ptr %4, align 4
  %11 = load ptr, ptr %5, align 8
  %12 = getelementptr inbounds ptr, ptr %11, i64 6
  %13 = load ptr, ptr %12, align 8
  call void %13(ptr noundef nonnull align 8 dereferenceable(10) %5, i32 noundef %10)
  br label %14

14:                                               ; preds = %9, %2
  ret void
}

; Function Attrs: mustprogress nounwind uwtable
define linkonce_odr dso_local noundef zeroext i1 @_Z14dtStatusFailedj(i32 noundef %0) #0 comdat {
  %2 = alloca i32, align 4
  store i32 %0, ptr %2, align 4
  %3 = load i32, ptr %2, align 4
  %4 = and i32 %3, -2147483648
  %5 = icmp ne i32 %4, 0
  ret i1 %5
}

; Function Attrs: mustprogress uwtable
define linkonce_odr dso_local void @_ZN9rcContext10startTimerE12rcTimerLabel(ptr noundef nonnull align 8 dereferenceable(10) %0, i32 noundef %1) #3 comdat align 2 {
  %3 = alloca ptr, align 8
  %4 = alloca i32, align 4
  store ptr %0, ptr %3, align 8
  store i32 %1, ptr %4, align 4
  %5 = load ptr, ptr %3, align 8
  %6 = getelementptr inbounds %class.rcContext, ptr %5, i32 0, i32 2
  %7 = load i8, ptr %6, align 1
  %8 = trunc i8 %7 to i1
  br i1 %8, label %9, label %14

9:                                                ; preds = %2
  %10 = load i32, ptr %4, align 4
  %11 = load ptr, ptr %5, align 8
  %12 = getelementptr inbounds ptr, ptr %11, i64 5
  %13 = load ptr, ptr %12, align 8
  call void %13(ptr noundef nonnull align 8 dereferenceable(10) %5, i32 noundef %10)
  br label %14

14:                                               ; preds = %9, %2
  ret void
}

; Function Attrs: mustprogress nounwind uwtable
define linkonce_odr dso_local noundef ptr @_ZNK9InputGeom19getNavMeshBoundsMaxEv(ptr noundef nonnull align 8 dereferenceable(50312) %0) #0 comdat align 2 {
  %2 = alloca ptr, align 8
  store ptr %0, ptr %2, align 8
  %3 = load ptr, ptr %2, align 8
  %4 = getelementptr inbounds %class.InputGeom, ptr %3, i32 0, i32 5
  %5 = load i8, ptr %4, align 4
  %6 = trunc i8 %5 to i1
  br i1 %6, label %7, label %10

7:                                                ; preds = %1
  %8 = getelementptr inbounds %class.InputGeom, ptr %3, i32 0, i32 4
  %9 = getelementptr inbounds %struct.BuildSettings, ptr %8, i32 0, i32 15
  br label %12

10:                                               ; preds = %1
  %11 = getelementptr inbounds %class.InputGeom, ptr %3, i32 0, i32 3
  br label %12

12:                                               ; preds = %10, %7
  %13 = phi ptr [ %9, %7 ], [ %11, %10 ]
  %14 = getelementptr inbounds [3 x float], ptr %13, i64 0, i64 0
  ret ptr %14
}

; Function Attrs: mustprogress nounwind uwtable
define linkonce_odr dso_local noundef ptr @_ZNK9InputGeom19getNavMeshBoundsMinEv(ptr noundef nonnull align 8 dereferenceable(50312) %0) #0 comdat align 2 {
  %2 = alloca ptr, align 8
  store ptr %0, ptr %2, align 8
  %3 = load ptr, ptr %2, align 8
  %4 = getelementptr inbounds %class.InputGeom, ptr %3, i32 0, i32 5
  %5 = load i8, ptr %4, align 4
  %6 = trunc i8 %5 to i1
  br i1 %6, label %7, label %10

7:                                                ; preds = %1
  %8 = getelementptr inbounds %class.InputGeom, ptr %3, i32 0, i32 4
  %9 = getelementptr inbounds %struct.BuildSettings, ptr %8, i32 0, i32 14
  br label %12

10:                                               ; preds = %1
  %11 = getelementptr inbounds %class.InputGeom, ptr %3, i32 0, i32 2
  br label %12

12:                                               ; preds = %10, %7
  %13 = phi ptr [ %9, %7 ], [ %11, %10 ]
  %14 = getelementptr inbounds [3 x float], ptr %13, i64 0, i64 0
  ret ptr %14
}

; Function Attrs: mustprogress uwtable
define dso_local void @_ZN15Sample_TileMesh13buildAllTilesEv(ptr noundef nonnull align 8 dereferenceable(404) %0) #3 align 2 {
  %2 = alloca ptr, align 8
  %3 = alloca ptr, align 8
  %4 = alloca ptr, align 8
  %5 = alloca i32, align 4
  %6 = alloca i32, align 4
  %7 = alloca i32, align 4
  %8 = alloca i32, align 4
  %9 = alloca i32, align 4
  %10 = alloca float, align 4
  %11 = alloca i32, align 4
  %12 = alloca i32, align 4
  %13 = alloca i32, align 4
  %14 = alloca ptr, align 8
  %15 = alloca i32, align 4
  store ptr %0, ptr %2, align 8
  %16 = load ptr, ptr %2, align 8
  %17 = getelementptr inbounds %class.Sample, ptr %16, i32 0, i32 1
  %18 = load ptr, ptr %17, align 8
  %19 = icmp ne ptr %18, null
  br i1 %19, label %21, label %20

20:                                               ; preds = %1
  br label %162

21:                                               ; preds = %1
  %22 = getelementptr inbounds %class.Sample, ptr %16, i32 0, i32 2
  %23 = load ptr, ptr %22, align 8
  %24 = icmp ne ptr %23, null
  br i1 %24, label %26, label %25

25:                                               ; preds = %21
  br label %162

26:                                               ; preds = %21
  %27 = getelementptr inbounds %class.Sample, ptr %16, i32 0, i32 1
  %28 = load ptr, ptr %27, align 8
  %29 = call noundef ptr @_ZNK9InputGeom19getNavMeshBoundsMinEv(ptr noundef nonnull align 8 dereferenceable(50312) %28)
  store ptr %29, ptr %3, align 8
  %30 = getelementptr inbounds %class.Sample, ptr %16, i32 0, i32 1
  %31 = load ptr, ptr %30, align 8
  %32 = call noundef ptr @_ZNK9InputGeom19getNavMeshBoundsMaxEv(ptr noundef nonnull align 8 dereferenceable(50312) %31)
  store ptr %32, ptr %4, align 8
  store i32 0, ptr %5, align 4
  store i32 0, ptr %6, align 4
  %33 = load ptr, ptr %3, align 8
  %34 = load ptr, ptr %4, align 8
  %35 = getelementptr inbounds %class.Sample, ptr %16, i32 0, i32 6
  %36 = load float, ptr %35, align 4
  call void @_Z14rcCalcGridSizePKfS0_fPiS1_(ptr noundef %33, ptr noundef %34, float noundef %36, ptr noundef %5, ptr noundef %6)
  %37 = getelementptr inbounds %class.Sample_TileMesh, ptr %16, i32 0, i32 15
  %38 = load float, ptr %37, align 8
  %39 = fptosi float %38 to i32
  store i32 %39, ptr %7, align 4
  %40 = load i32, ptr %5, align 4
  %41 = load i32, ptr %7, align 4
  %42 = add nsw i32 %40, %41
  %43 = sub nsw i32 %42, 1
  %44 = load i32, ptr %7, align 4
  %45 = sdiv i32 %43, %44
  store i32 %45, ptr %8, align 4
  %46 = load i32, ptr %6, align 4
  %47 = load i32, ptr %7, align 4
  %48 = add nsw i32 %46, %47
  %49 = sub nsw i32 %48, 1
  %50 = load i32, ptr %7, align 4
  %51 = sdiv i32 %49, %50
  store i32 %51, ptr %9, align 4
  %52 = getelementptr inbounds %class.Sample_TileMesh, ptr %16, i32 0, i32 15
  %53 = load float, ptr %52, align 8
  %54 = getelementptr inbounds %class.Sample, ptr %16, i32 0, i32 6
  %55 = load float, ptr %54, align 4
  %56 = fmul float %53, %55
  store float %56, ptr %10, align 4
  %57 = getelementptr inbounds %class.Sample, ptr %16, i32 0, i32 25
  %58 = load ptr, ptr %57, align 8
  call void @_ZN9rcContext10startTimerE12rcTimerLabel(ptr noundef nonnull align 8 dereferenceable(10) %58, i32 noundef 1)
  store i32 0, ptr %11, align 4
  br label %59

59:                                               ; preds = %150, %26
  %60 = load i32, ptr %11, align 4
  %61 = load i32, ptr %9, align 4
  %62 = icmp slt i32 %60, %61
  br i1 %62, label %63, label %153

63:                                               ; preds = %59
  store i32 0, ptr %12, align 4
  br label %64

64:                                               ; preds = %146, %63
  %65 = load i32, ptr %12, align 4
  %66 = load i32, ptr %8, align 4
  %67 = icmp slt i32 %65, %66
  br i1 %67, label %68, label %149

68:                                               ; preds = %64
  %69 = load ptr, ptr %3, align 8
  %70 = getelementptr inbounds float, ptr %69, i64 0
  %71 = load float, ptr %70, align 4
  %72 = load i32, ptr %12, align 4
  %73 = sitofp i32 %72 to float
  %74 = load float, ptr %10, align 4
  %75 = call float @llvm.fmuladd.f32(float %73, float %74, float %71)
  %76 = getelementptr inbounds %class.Sample_TileMesh, ptr %16, i32 0, i32 17
  %77 = getelementptr inbounds [3 x float], ptr %76, i64 0, i64 0
  store float %75, ptr %77, align 8
  %78 = load ptr, ptr %3, align 8
  %79 = getelementptr inbounds float, ptr %78, i64 1
  %80 = load float, ptr %79, align 4
  %81 = getelementptr inbounds %class.Sample_TileMesh, ptr %16, i32 0, i32 17
  %82 = getelementptr inbounds [3 x float], ptr %81, i64 0, i64 1
  store float %80, ptr %82, align 4
  %83 = load ptr, ptr %3, align 8
  %84 = getelementptr inbounds float, ptr %83, i64 2
  %85 = load float, ptr %84, align 4
  %86 = load i32, ptr %11, align 4
  %87 = sitofp i32 %86 to float
  %88 = load float, ptr %10, align 4
  %89 = call float @llvm.fmuladd.f32(float %87, float %88, float %85)
  %90 = getelementptr inbounds %class.Sample_TileMesh, ptr %16, i32 0, i32 17
  %91 = getelementptr inbounds [3 x float], ptr %90, i64 0, i64 2
  store float %89, ptr %91, align 8
  %92 = load ptr, ptr %3, align 8
  %93 = getelementptr inbounds float, ptr %92, i64 0
  %94 = load float, ptr %93, align 4
  %95 = load i32, ptr %12, align 4
  %96 = add nsw i32 %95, 1
  %97 = sitofp i32 %96 to float
  %98 = load float, ptr %10, align 4
  %99 = call float @llvm.fmuladd.f32(float %97, float %98, float %94)
  %100 = getelementptr inbounds %class.Sample_TileMesh, ptr %16, i32 0, i32 18
  %101 = getelementptr inbounds [3 x float], ptr %100, i64 0, i64 0
  store float %99, ptr %101, align 4
  %102 = load ptr, ptr %4, align 8
  %103 = getelementptr inbounds float, ptr %102, i64 1
  %104 = load float, ptr %103, align 4
  %105 = getelementptr inbounds %class.Sample_TileMesh, ptr %16, i32 0, i32 18
  %106 = getelementptr inbounds [3 x float], ptr %105, i64 0, i64 1
  store float %104, ptr %106, align 4
  %107 = load ptr, ptr %3, align 8
  %108 = getelementptr inbounds float, ptr %107, i64 2
  %109 = load float, ptr %108, align 4
  %110 = load i32, ptr %11, align 4
  %111 = add nsw i32 %110, 1
  %112 = sitofp i32 %111 to float
  %113 = load float, ptr %10, align 4
  %114 = call float @llvm.fmuladd.f32(float %112, float %113, float %109)
  %115 = getelementptr inbounds %class.Sample_TileMesh, ptr %16, i32 0, i32 18
  %116 = getelementptr inbounds [3 x float], ptr %115, i64 0, i64 2
  store float %114, ptr %116, align 4
  store i32 0, ptr %13, align 4
  %117 = load i32, ptr %12, align 4
  %118 = load i32, ptr %11, align 4
  %119 = getelementptr inbounds %class.Sample_TileMesh, ptr %16, i32 0, i32 17
  %120 = getelementptr inbounds [3 x float], ptr %119, i64 0, i64 0
  %121 = getelementptr inbounds %class.Sample_TileMesh, ptr %16, i32 0, i32 18
  %122 = getelementptr inbounds [3 x float], ptr %121, i64 0, i64 0
  %123 = call noundef ptr @_ZN15Sample_TileMesh13buildTileMeshEiiPKfS1_Ri(ptr noundef nonnull align 8 dereferenceable(404) %16, i32 noundef %117, i32 noundef %118, ptr noundef %120, ptr noundef %122, ptr noundef nonnull align 4 dereferenceable(4) %13)
  store ptr %123, ptr %14, align 8
  %124 = load ptr, ptr %14, align 8
  %125 = icmp ne ptr %124, null
  br i1 %125, label %126, label %145

126:                                              ; preds = %68
  %127 = getelementptr inbounds %class.Sample, ptr %16, i32 0, i32 2
  %128 = load ptr, ptr %127, align 8
  %129 = getelementptr inbounds %class.Sample, ptr %16, i32 0, i32 2
  %130 = load ptr, ptr %129, align 8
  %131 = load i32, ptr %12, align 4
  %132 = load i32, ptr %11, align 4
  %133 = call noundef i32 @_ZNK9dtNavMesh12getTileRefAtEiii(ptr noundef nonnull align 8 dereferenceable(100) %130, i32 noundef %131, i32 noundef %132, i32 noundef 0)
  %134 = call noundef i32 @_ZN9dtNavMesh10removeTileEjPPhPi(ptr noundef nonnull align 8 dereferenceable(100) %128, i32 noundef %133, ptr noundef null, ptr noundef null)
  %135 = getelementptr inbounds %class.Sample, ptr %16, i32 0, i32 2
  %136 = load ptr, ptr %135, align 8
  %137 = load ptr, ptr %14, align 8
  %138 = load i32, ptr %13, align 4
  %139 = call noundef i32 @_ZN9dtNavMesh7addTileEPhiijPj(ptr noundef nonnull align 8 dereferenceable(100) %136, ptr noundef %137, i32 noundef %138, i32 noundef 1, i32 noundef 0, ptr noundef null)
  store i32 %139, ptr %15, align 4
  %140 = load i32, ptr %15, align 4
  %141 = call noundef zeroext i1 @_Z14dtStatusFailedj(i32 noundef %140)
  br i1 %141, label %142, label %144

142:                                              ; preds = %126
  %143 = load ptr, ptr %14, align 8
  call void @_Z6dtFreePv(ptr noundef %143)
  br label %144

144:                                              ; preds = %142, %126
  br label %145

145:                                              ; preds = %144, %68
  br label %146

146:                                              ; preds = %145
  %147 = load i32, ptr %12, align 4
  %148 = add nsw i32 %147, 1
  store i32 %148, ptr %12, align 4
  br label %64, !llvm.loop !8

149:                                              ; preds = %64
  br label %150

150:                                              ; preds = %149
  %151 = load i32, ptr %11, align 4
  %152 = add nsw i32 %151, 1
  store i32 %152, ptr %11, align 4
  br label %59, !llvm.loop !9

153:                                              ; preds = %59
  %154 = getelementptr inbounds %class.Sample, ptr %16, i32 0, i32 25
  %155 = load ptr, ptr %154, align 8
  call void @_ZN9rcContext9stopTimerE12rcTimerLabel(ptr noundef nonnull align 8 dereferenceable(10) %155, i32 noundef 1)
  %156 = getelementptr inbounds %class.Sample, ptr %16, i32 0, i32 25
  %157 = load ptr, ptr %156, align 8
  %158 = call noundef i32 @_ZNK9rcContext18getAccumulatedTimeE12rcTimerLabel(ptr noundef nonnull align 8 dereferenceable(10) %157, i32 noundef 1)
  %159 = sitofp i32 %158 to float
  %160 = fdiv float %159, 1.000000e+03
  %161 = getelementptr inbounds %class.Sample_TileMesh, ptr %16, i32 0, i32 4
  store float %160, ptr %161, align 4
  br label %162

162:                                              ; preds = %153, %25, %20
  ret void
}