; Function Attrs: mustprogress uwtable
define dso_local void @_ZN15Sample_TileMesh13buildAllTilesEv(ptr noundef nonnull align 8 dereferenceable(404) %0) local_unnamed_addr #3 align 2 {
  %2 = alloca i32, align 4
  %3 = alloca i32, align 4
  %4 = alloca i32, align 4
  %5 = getelementptr inbounds i8, ptr %0, i64 8
  %6 = load ptr, ptr %5, align 8
  %.not = icmp eq ptr %6, null
  br i1 %.not, label %95, label %7

7:                                                ; preds = %1
  %8 = getelementptr inbounds i8, ptr %0, i64 16
  %9 = load ptr, ptr %8, align 8
  %.not37 = icmp eq ptr %9, null
  br i1 %.not37, label %95, label %10

10:                                               ; preds = %7
  %11 = getelementptr inbounds i8, ptr %6, i64 124
  %12 = load i8, ptr %11, align 4
  %13 = and i8 %12, 1
  %.not.i = icmp eq i8 %13, 0
  %.v.i = select i1 %.not.i, i64 16, i64 96
  %14 = getelementptr inbounds i8, ptr %6, i64 %.v.i
  %.v.i40 = select i1 %.not.i, i64 28, i64 108
  %15 = getelementptr inbounds i8, ptr %6, i64 %.v.i40
  store i32 0, ptr %2, align 4
  store i32 0, ptr %3, align 4
  %16 = getelementptr inbounds i8, ptr %0, i64 44
  %17 = load float, ptr %16, align 4
  call void @_Z14rcCalcGridSizePKfS0_fPiS1_(ptr noundef nonnull %14, ptr noundef nonnull %15, float noundef %17, ptr noundef nonnull %2, ptr noundef nonnull %3)
  %18 = getelementptr inbounds i8, ptr %0, i64 360
  %19 = load float, ptr %18, align 8
  %20 = fptosi float %19 to i32
  %21 = load i32, ptr %2, align 4
  %22 = add i32 %20, -1
  %23 = add i32 %22, %21
  %24 = sdiv i32 %23, %20
  %25 = load i32, ptr %3, align 4
  %26 = add i32 %22, %25
  %27 = sdiv i32 %26, %20
  %28 = load float, ptr %16, align 4
  %29 = fmul float %19, %28
  %30 = getelementptr inbounds i8, ptr %0, i64 184
  %31 = load ptr, ptr %30, align 8
  %32 = getelementptr inbounds i8, ptr %31, i64 9
  %33 = load i8, ptr %32, align 1
  %34 = and i8 %33, 1
  %.not.i41 = icmp eq i8 %34, 0
  br i1 %.not.i41, label %_ZN9rcContext10startTimerE12rcTimerLabel.exit, label %35

35:                                               ; preds = %10
  %36 = load ptr, ptr %31, align 8
  %37 = getelementptr inbounds i8, ptr %36, i64 40
  %38 = load ptr, ptr %37, align 8
  call void %38(ptr noundef nonnull align 8 dereferenceable(10) %31, i32 noundef 1)
  br label %_ZN9rcContext10startTimerE12rcTimerLabel.exit

_ZN9rcContext10startTimerE12rcTimerLabel.exit:    ; preds = %10, %35
  %39 = icmp sgt i32 %27, 0
  br i1 %39, label %.preheader.lr.ph, label %._crit_edge46

.preheader.lr.ph:                                 ; preds = %_ZN9rcContext10startTimerE12rcTimerLabel.exit
  %40 = icmp sgt i32 %24, 0
  %41 = getelementptr inbounds i8, ptr %0, i64 368
  %42 = getelementptr inbounds i8, ptr %14, i64 4
  %43 = getelementptr inbounds i8, ptr %0, i64 372
  %44 = getelementptr inbounds i8, ptr %14, i64 8
  %45 = getelementptr inbounds i8, ptr %0, i64 376
  %46 = getelementptr inbounds i8, ptr %0, i64 380
  %47 = getelementptr inbounds i8, ptr %15, i64 4
  %48 = getelementptr inbounds i8, ptr %0, i64 384
  %49 = getelementptr inbounds i8, ptr %0, i64 388
  br i1 %40, label %.preheader.us, label %._crit_edge46

.preheader.us:                                    ; preds = %.preheader.lr.ph, %._crit_edge.us
  %.045.us = phi i32 [ %51, %._crit_edge.us ], [ 0, %.preheader.lr.ph ]
  %50 = sitofp i32 %.045.us to float
  %51 = add nuw nsw i32 %.045.us, 1
  %52 = sitofp i32 %51 to float
  br label %53

53:                                               ; preds = %.preheader.us, %77
  %.03444.us = phi i32 [ 0, %.preheader.us ], [ %61, %77 ]
  %54 = load float, ptr %14, align 4
  %55 = sitofp i32 %.03444.us to float
  %56 = call float @llvm.fmuladd.f32(float %55, float %29, float %54)
  store float %56, ptr %41, align 8
  %57 = load float, ptr %42, align 4
  store float %57, ptr %43, align 4
  %58 = load float, ptr %44, align 4
  %59 = call float @llvm.fmuladd.f32(float %50, float %29, float %58)
  store float %59, ptr %45, align 8
  %60 = load float, ptr %14, align 4
  %61 = add nuw nsw i32 %.03444.us, 1
  %62 = sitofp i32 %61 to float
  %63 = call float @llvm.fmuladd.f32(float %62, float %29, float %60)
  store float %63, ptr %46, align 4
  %64 = load float, ptr %47, align 4
  store float %64, ptr %48, align 8
  %65 = load float, ptr %44, align 4
  %66 = call float @llvm.fmuladd.f32(float %52, float %29, float %65)
  store float %66, ptr %49, align 4
  store i32 0, ptr %4, align 4
  %67 = call noundef ptr @_ZN15Sample_TileMesh13buildTileMeshEiiPKfS1_Ri(ptr noundef nonnull align 8 dereferenceable(404) %0, i32 noundef %.03444.us, i32 noundef %.045.us, ptr noundef nonnull %41, ptr noundef nonnull %46, ptr noundef nonnull align 4 dereferenceable(4) %4)
  %.not38.us = icmp eq ptr %67, null
  br i1 %.not38.us, label %77, label %68

68:                                               ; preds = %53
  %69 = load ptr, ptr %8, align 8
  %70 = call noundef i32 @_ZNK9dtNavMesh12getTileRefAtEiii(ptr noundef nonnull align 8 dereferenceable(100) %69, i32 noundef %.03444.us, i32 noundef %.045.us, i32 noundef 0)
  %71 = call noundef i32 @_ZN9dtNavMesh10removeTileEjPPhPi(ptr noundef nonnull align 8 dereferenceable(100) %69, i32 noundef %70, ptr noundef null, ptr noundef null)
  %72 = load ptr, ptr %8, align 8
  %73 = load i32, ptr %4, align 4
  %74 = call noundef i32 @_ZN9dtNavMesh7addTileEPhiijPj(ptr noundef nonnull align 8 dereferenceable(100) %72, ptr noundef nonnull %67, i32 noundef %73, i32 noundef 1, i32 noundef 0, ptr noundef null)
  %75 = icmp slt i32 %74, 0
  br i1 %75, label %76, label %77

76:                                               ; preds = %68
  call void @_Z6dtFreePv(ptr noundef nonnull %67)
  br label %77

77:                                               ; preds = %76, %68, %53
  %exitcond.not = icmp eq i32 %61, %24
  br i1 %exitcond.not, label %._crit_edge.us, label %53, !llvm.loop !7

._crit_edge.us:                                   ; preds = %77
  %exitcond48.not = icmp eq i32 %51, %27
  br i1 %exitcond48.not, label %._crit_edge46, label %.preheader.us, !llvm.loop !8

._crit_edge46:                                    ; preds = %._crit_edge.us, %.preheader.lr.ph, %_ZN9rcContext10startTimerE12rcTimerLabel.exit
  %78 = load ptr, ptr %30, align 8
  %79 = getelementptr inbounds i8, ptr %78, i64 9
  %80 = load i8, ptr %79, align 1
  %81 = and i8 %80, 1
  %.not.i42 = icmp eq i8 %81, 0
  br i1 %.not.i42, label %_ZNK9rcContext18getAccumulatedTimeE12rcTimerLabel.exit, label %_ZN9rcContext9stopTimerE12rcTimerLabel.exit

_ZN9rcContext9stopTimerE12rcTimerLabel.exit:      ; preds = %._crit_edge46
  %82 = load ptr, ptr %78, align 8
  %83 = getelementptr inbounds i8, ptr %82, i64 48
  %84 = load ptr, ptr %83, align 8
  call void %84(ptr noundef nonnull align 8 dereferenceable(10) %78, i32 noundef 1)
  %.pre = load ptr, ptr %30, align 8
  %.phi.trans.insert = getelementptr inbounds i8, ptr %.pre, i64 9
  %.pre49 = load i8, ptr %.phi.trans.insert, align 1
  %.pre50 = and i8 %.pre49, 1
  %85 = icmp eq i8 %.pre50, 0
  br i1 %85, label %_ZNK9rcContext18getAccumulatedTimeE12rcTimerLabel.exit, label %86

86:                                               ; preds = %_ZN9rcContext9stopTimerE12rcTimerLabel.exit
  %87 = load ptr, ptr %.pre, align 8
  %88 = getelementptr inbounds i8, ptr %87, i64 56
  %89 = load ptr, ptr %88, align 8
  %90 = call noundef i32 %89(ptr noundef nonnull align 8 dereferenceable(10) %.pre, i32 noundef 1)
  %91 = sitofp i32 %90 to float
  br label %_ZNK9rcContext18getAccumulatedTimeE12rcTimerLabel.exit

_ZNK9rcContext18getAccumulatedTimeE12rcTimerLabel.exit: ; preds = %._crit_edge46, %_ZN9rcContext9stopTimerE12rcTimerLabel.exit, %86
  %92 = phi float [ %91, %86 ], [ -1.000000e+00, %_ZN9rcContext9stopTimerE12rcTimerLabel.exit ], [ -1.000000e+00, %._crit_edge46 ]
  %93 = fdiv float %92, 1.000000e+03
  %94 = getelementptr inbounds i8, ptr %0, i64 204
  store float %93, ptr %94, align 4
  br label %95

95:                                               ; preds = %7, %1, %_ZNK9rcContext18getAccumulatedTimeE12rcTimerLabel.exit
  ret void
}